target datalayout = "e-m:e-p270:32:32-p271:32:32-p272:64:64-i64:64-i128:128-f80:128-n8:16:32:64-S128"
target triple = "x86_64-pc-linux-gnu"

%struct.sharedObjectsStruct = type { ptr, ptr, ptr, ptr, ptr, ptr, ptr, ptr, [4 x ptr], [4 x ptr], [4 x ptr], [4 x ptr], ptr, ptr, ptr, ptr, ptr, ptr, ptr, ptr, ptr, ptr, ptr, ptr, ptr, ptr, ptr, ptr, ptr, ptr, ptr, ptr, ptr, ptr, ptr, ptr, ptr, ptr, ptr, ptr, ptr, ptr, ptr, ptr, ptr, ptr, ptr, ptr, ptr, ptr, ptr, ptr, ptr, ptr, ptr, ptr, ptr, ptr, ptr, ptr, ptr, ptr, ptr, ptr, ptr, ptr, ptr, ptr, ptr, ptr, ptr, ptr, ptr, ptr, ptr, ptr, ptr, ptr, ptr, ptr, ptr, ptr, ptr, ptr, ptr, ptr, ptr, ptr, [10 x ptr], [10000 x ptr], [32 x ptr], [32 x ptr], [32 x ptr], [32 x ptr], ptr, ptr }
%struct.engineInfo = type { ptr, ptr, ptr }
%struct.functionsLibCtx = type { ptr, ptr, i64, ptr }
%struct.functionsLibEngineStats = type { i64, i64 }
%struct.client = type { i64, i64, ptr, i8, i8, i8, i8, i32, ptr, ptr, ptr, ptr, ptr, i64, i64, i32, ptr, i32, i32, ptr, i64, ptr, ptr, ptr, ptr, ptr, i32, i32, i64, ptr, i64, ptr, i64, i64, i64, i32, ptr, i64, i64, i32, i32, i32, i32, i64, i64, ptr, i64, i64, i64, i64, i64, i64, i64, i64, [41 x i8], i32, ptr, i32, i32, i64, %struct.multiState, %struct.blockingState, i64, ptr, ptr, ptr, ptr, ptr, ptr, ptr, ptr, ptr, ptr, ptr, ptr, ptr, ptr, i64, ptr, i64, i32, ptr, ptr, ptr, i64, %struct.listNode, i64, i64, i32, i64, ptr }
%struct.multiState = type { ptr, i32, i32, i32, i64, i32 }
%struct.blockingState = type { i32, i64, i32, ptr, i32, i32, i64, ptr, ptr, i64 }
%struct.listNode = type { ptr, ptr, ptr }
%struct.redisObject = type { i32, i32, ptr }
%struct.dict = type { ptr, [2 x ptr], [2 x i64], i64, i16, [2 x i8], i16, [0 x ptr] }
%struct.sdshdr8 = type { i8, i8, i8, [0 x i8] }
%struct.sdshdr16 = type <{ i16, i16, i8, [0 x i8] }>
%struct.sdshdr32 = type <{ i32, i32, i8, [0 x i8] }>
%struct.sdshdr64 = type <{ i64, i64, i8, [0 x i8] }>

@curr_functions_lib_ctx = internal global ptr null, align 8
@engines = internal global ptr null, align 8
@shared = external global %struct.sharedObjectsStruct, align 8
@.str.5 = private unnamed_addr constant [15 x i8] c"running_script\00", align 1
@.str.6 = private unnamed_addr constant [5 x i8] c"name\00", align 1
@.str.7 = private unnamed_addr constant [8 x i8] c"command\00", align 1
@.str.8 = private unnamed_addr constant [12 x i8] c"duration_ms\00", align 1
@.str.9 = private unnamed_addr constant [8 x i8] c"engines\00", align 1
@.str.10 = private unnamed_addr constant [16 x i8] c"libraries_count\00", align 1
@.str.11 = private unnamed_addr constant [16 x i8] c"functions_count\00", align 1

; Function Attrs: inlinehint nounwind uwtable
define internal i64 @sdslen(ptr noundef %0) #8 {
  %2 = alloca i64, align 8
  %3 = alloca ptr, align 8
  %4 = alloca i8, align 1
  %5 = alloca i32, align 4
  store ptr %0, ptr %3, align 8, !tbaa !57
  call void @llvm.lifetime.start.p0(i64 1, ptr %4) #11
  %6 = load ptr, ptr %3, align 8, !tbaa !57
  %7 = getelementptr inbounds i8, ptr %6, i64 -1
  %8 = load i8, ptr %7, align 1, !tbaa !65
  store i8 %8, ptr %4, align 1, !tbaa !65
  %9 = load i8, ptr %4, align 1, !tbaa !65
  %10 = zext i8 %9 to i32
  %11 = and i32 %10, 7
  switch i32 %11, label %40 [
    i32 0, label %12
    i32 1, label %17
    i32 2, label %23
    i32 3, label %29
    i32 4, label %35
  ]

12:                                               ; preds = %1
  %13 = load i8, ptr %4, align 1, !tbaa !65
  %14 = zext i8 %13 to i32
  %15 = ashr i32 %14, 3
  %16 = sext i32 %15 to i64
  store i64 %16, ptr %2, align 8
  store i32 1, ptr %5, align 4
  br label %41

17:                                               ; preds = %1
  %18 = load ptr, ptr %3, align 8, !tbaa !57
  %19 = getelementptr inbounds i8, ptr %18, i64 -3
  %20 = getelementptr inbounds nuw %struct.sdshdr8, ptr %19, i32 0, i32 0
  %21 = load i8, ptr %20, align 1, !tbaa !65
  %22 = zext i8 %21 to i64
  store i64 %22, ptr %2, align 8
  store i32 1, ptr %5, align 4
  br label %41

23:                                               ; preds = %1
  %24 = load ptr, ptr %3, align 8, !tbaa !57
  %25 = getelementptr inbounds i8, ptr %24, i64 -5
  %26 = getelementptr inbounds nuw %struct.sdshdr16, ptr %25, i32 0, i32 0
  %27 = load i16, ptr %26, align 1, !tbaa !113
  %28 = zext i16 %27 to i64
  store i64 %28, ptr %2, align 8
  store i32 1, ptr %5, align 4
  br label %41

29:                                               ; preds = %1
  %30 = load ptr, ptr %3, align 8, !tbaa !57
  %31 = getelementptr inbounds i8, ptr %30, i64 -9
  %32 = getelementptr inbounds nuw %struct.sdshdr32, ptr %31, i32 0, i32 0
  %33 = load i32, ptr %32, align 1, !tbaa !54
  %34 = zext i32 %33 to i64
  store i64 %34, ptr %2, align 8
  store i32 1, ptr %5, align 4
  br label %41

35:                                               ; preds = %1
  %36 = load ptr, ptr %3, align 8, !tbaa !57
  %37 = getelementptr inbounds i8, ptr %36, i64 -17
  %38 = getelementptr inbounds nuw %struct.sdshdr64, ptr %37, i32 0, i32 0
  %39 = load i64, ptr %38, align 1, !tbaa !59
  store i64 %39, ptr %2, align 8
  store i32 1, ptr %5, align 4
  br label %41

40:                                               ; preds = %1
  store i64 0, ptr %2, align 8
  store i32 1, ptr %5, align 4
  br label %41

41:                                               ; preds = %40, %35, %29, %23, %17, %12
  call void @llvm.lifetime.end.p0(i64 1, ptr %4) #11
  %42 = load i64, ptr %2, align 8
  ret i64 %42
}

; Function Attrs: nounwind uwtable
define dso_local void @functionStatsCommand(ptr noundef %0) #1 {
  %2 = alloca ptr, align 8
  %3 = alloca ptr, align 8
  %4 = alloca i32, align 4
  %5 = alloca ptr, align 8
  %6 = alloca ptr, align 8
  %7 = alloca ptr, align 8
  %8 = alloca ptr, align 8
  store ptr %0, ptr %2, align 8, !tbaa !91
  %9 = call i32 @scriptIsRunning()
  %10 = icmp ne i32 %9, 0
  br i1 %10, label %11, label %17

11:                                               ; preds = %1
  %12 = call i32 @scriptIsEval()
  %13 = icmp ne i32 %12, 0
  br i1 %13, label %14, label %17

14:                                               ; preds = %11
  %15 = load ptr, ptr %2, align 8, !tbaa !91
  %16 = load ptr, ptr getelementptr inbounds nuw (%struct.sharedObjectsStruct, ptr @shared, i32 0, i32 20), align 8, !tbaa !104
  call void @addReplyErrorObject(ptr noundef %15, ptr noundef %16)
  br label %116

17:                                               ; preds = %11, %1
  %18 = load ptr, ptr %2, align 8, !tbaa !91
  call void @addReplyMapLen(ptr noundef %18, i64 noundef 2)
  %19 = load ptr, ptr %2, align 8, !tbaa !91
  call void @addReplyBulkCString(ptr noundef %19, ptr noundef @.str.5)
  %20 = call i32 @scriptIsRunning()
  %21 = icmp ne i32 %20, 0
  br i1 %21, label %24, label %22

22:                                               ; preds = %17
  %23 = load ptr, ptr %2, align 8, !tbaa !91
  call void @addReplyNull(ptr noundef %23)
  br label %71

24:                                               ; preds = %17
  %25 = load ptr, ptr %2, align 8, !tbaa !91
  call void @addReplyMapLen(ptr noundef %25, i64 noundef 3)
  %26 = load ptr, ptr %2, align 8, !tbaa !91
  call void @addReplyBulkCString(ptr noundef %26, ptr noundef @.str.6)
  %27 = load ptr, ptr %2, align 8, !tbaa !91
  %28 = call ptr @scriptCurrFunction()
  call void @addReplyBulkCString(ptr noundef %27, ptr noundef %28)
  %29 = load ptr, ptr %2, align 8, !tbaa !91
  call void @addReplyBulkCString(ptr noundef %29, ptr noundef @.str.7)
  call void @llvm.lifetime.start.p0(i64 8, ptr %3) #11
  %30 = call ptr @scriptGetCaller()
  store ptr %30, ptr %3, align 8, !tbaa !91
  %31 = load ptr, ptr %2, align 8, !tbaa !91
  %32 = load ptr, ptr %3, align 8, !tbaa !91
  %33 = getelementptr inbounds nuw %struct.client, ptr %32, i32 0, i32 15
  %34 = load i32, ptr %33, align 8, !tbaa !106
  %35 = sext i32 %34 to i64
  call void @addReplyArrayLen(ptr noundef %31, i64 noundef %35)
  call void @llvm.lifetime.start.p0(i64 4, ptr %4) #11
  store i32 0, ptr %4, align 4, !tbaa !54
  br label %36

36:                                               ; preds = %64, %24
  %37 = load i32, ptr %4, align 4, !tbaa !54
  %38 = load ptr, ptr %3, align 8, !tbaa !91
  %39 = getelementptr inbounds nuw %struct.client, ptr %38, i32 0, i32 15
  %40 = load i32, ptr %39, align 8, !tbaa !106
  %41 = icmp slt i32 %37, %40
  br i1 %41, label %43, label %42

42:                                               ; preds = %36
  call void @llvm.lifetime.end.p0(i64 4, ptr %4) #11
  br label %67

43:                                               ; preds = %36
  %44 = load ptr, ptr %2, align 8, !tbaa !91
  %45 = load ptr, ptr %3, align 8, !tbaa !91
  %46 = getelementptr inbounds nuw %struct.client, ptr %45, i32 0, i32 16
  %47 = load ptr, ptr %46, align 8, !tbaa !107
  %48 = load i32, ptr %4, align 4, !tbaa !54
  %49 = sext i32 %48 to i64
  %50 = getelementptr inbounds ptr, ptr %47, i64 %49
  %51 = load ptr, ptr %50, align 8, !tbaa !108
  %52 = getelementptr inbounds nuw %struct.redisObject, ptr %51, i32 0, i32 2
  %53 = load ptr, ptr %52, align 8, !tbaa !109
  %54 = load ptr, ptr %3, align 8, !tbaa !91
  %55 = getelementptr inbounds nuw %struct.client, ptr %54, i32 0, i32 16
  %56 = load ptr, ptr %55, align 8, !tbaa !107
  %57 = load i32, ptr %4, align 4, !tbaa !54
  %58 = sext i32 %57 to i64
  %59 = getelementptr inbounds ptr, ptr %56, i64 %58
  %60 = load ptr, ptr %59, align 8, !tbaa !108
  %61 = getelementptr inbounds nuw %struct.redisObject, ptr %60, i32 0, i32 2
  %62 = load ptr, ptr %61, align 8, !tbaa !109
  %63 = call i64 @sdslen(ptr noundef %62)
  call void @addReplyBulkCBuffer(ptr noundef %44, ptr noundef %53, i64 noundef %63)
  br label %64

64:                                               ; preds = %43
  %65 = load i32, ptr %4, align 4, !tbaa !54
  %66 = add nsw i32 %65, 1
  store i32 %66, ptr %4, align 4, !tbaa !54
  br label %36, !llvm.loop !111

67:                                               ; preds = %42
  %68 = load ptr, ptr %2, align 8, !tbaa !91
  call void @addReplyBulkCString(ptr noundef %68, ptr noundef @.str.8)
  %69 = load ptr, ptr %2, align 8, !tbaa !91
  %70 = call i64 @scriptRunDuration()
  call void @addReplyLongLong(ptr noundef %69, i64 noundef %70)
  call void @llvm.lifetime.end.p0(i64 8, ptr %3) #11
  br label %71

71:                                               ; preds = %67, %22
  %72 = load ptr, ptr %2, align 8, !tbaa !91
  call void @addReplyBulkCString(ptr noundef %72, ptr noundef @.str.9)
  %73 = load ptr, ptr %2, align 8, !tbaa !91
  %74 = load ptr, ptr @engines, align 8, !tbaa !5
  %75 = getelementptr inbounds nuw %struct.dict, ptr %74, i32 0, i32 2
  %76 = getelementptr inbounds [2 x i64], ptr %75, i64 0, i64 0
  %77 = load i64, ptr %76, align 8, !tbaa !59
  %78 = load ptr, ptr @engines, align 8, !tbaa !5
  %79 = getelementptr inbounds nuw %struct.dict, ptr %78, i32 0, i32 2
  %80 = getelementptr inbounds [2 x i64], ptr %79, i64 0, i64 1
  %81 = load i64, ptr %80, align 8, !tbaa !59
  %82 = add i64 %77, %81
  call void @addReplyMapLen(ptr noundef %73, i64 noundef %82)
  call void @llvm.lifetime.start.p0(i64 8, ptr %5) #11
  %83 = load ptr, ptr @engines, align 8, !tbaa !5
  %84 = call ptr @dictGetIterator(ptr noundef %83)
  store ptr %84, ptr %5, align 8, !tbaa !44
  call void @llvm.lifetime.start.p0(i64 8, ptr %6) #11
  store ptr null, ptr %6, align 8, !tbaa !46
  br label %85

85:                                               ; preds = %89, %71
  %86 = load ptr, ptr %5, align 8, !tbaa !44
  %87 = call ptr @dictNext(ptr noundef %86)
  store ptr %87, ptr %6, align 8, !tbaa !46
  %88 = icmp ne ptr %87, null
  br i1 %88, label %89, label %114

89:                                               ; preds = %85
  call void @llvm.lifetime.start.p0(i64 8, ptr %7) #11
  %90 = load ptr, ptr %6, align 8, !tbaa !46
  %91 = call ptr @dictGetVal(ptr noundef %90)
  store ptr %91, ptr %7, align 8, !tbaa !11
  %92 = load ptr, ptr %2, align 8, !tbaa !91
  %93 = load ptr, ptr %7, align 8, !tbaa !11
  %94 = getelementptr inbounds nuw %struct.engineInfo, ptr %93, i32 0, i32 0
  %95 = load ptr, ptr %94, align 8, !tbaa !18
  call void @addReplyBulkCString(ptr noundef %92, ptr noundef %95)
  %96 = load ptr, ptr %2, align 8, !tbaa !91
  call void @addReplyMapLen(ptr noundef %96, i64 noundef 2)
  call void @llvm.lifetime.start.p0(i64 8, ptr %8) #11
  %97 = load ptr, ptr @curr_functions_lib_ctx, align 8, !tbaa !38
  %98 = getelementptr inbounds nuw %struct.functionsLibCtx, ptr %97, i32 0, i32 3
  %99 = load ptr, ptr %98, align 8, !tbaa !43
  %100 = load ptr, ptr %7, align 8, !tbaa !11
  %101 = getelementptr inbounds nuw %struct.engineInfo, ptr %100, i32 0, i32 0
  %102 = load ptr, ptr %101, align 8, !tbaa !18
  %103 = call ptr @dictFetchValue(ptr noundef %99, ptr noundef %102)
  store ptr %103, ptr %8, align 8, !tbaa !23
  %104 = load ptr, ptr %2, align 8, !tbaa !91
  call void @addReplyBulkCString(ptr noundef %104, ptr noundef @.str.10)
  %105 = load ptr, ptr %2, align 8, !tbaa !91
  %106 = load ptr, ptr %8, align 8, !tbaa !23
  %107 = getelementptr inbounds nuw %struct.functionsLibEngineStats, ptr %106, i32 0, i32 0
  %108 = load i64, ptr %107, align 8, !tbaa !50
  call void @addReplyLongLong(ptr noundef %105, i64 noundef %108)
  %109 = load ptr, ptr %2, align 8, !tbaa !91
  call void @addReplyBulkCString(ptr noundef %109, ptr noundef @.str.11)
  %110 = load ptr, ptr %2, align 8, !tbaa !91
  %111 = load ptr, ptr %8, align 8, !tbaa !23
  %112 = getelementptr inbounds nuw %struct.functionsLibEngineStats, ptr %111, i32 0, i32 1
  %113 = load i64, ptr %112, align 8, !tbaa !48
  call void @addReplyLongLong(ptr noundef %110, i64 noundef %113)
  call void @llvm.lifetime.end.p0(i64 8, ptr %8) #11
  call void @llvm.lifetime.end.p0(i64 8, ptr %7) #11
  br label %85, !llvm.loop !112

114:                                              ; preds = %85
  %115 = load ptr, ptr %5, align 8, !tbaa !44
  call void @dictReleaseIterator(ptr noundef %115)
  call void @llvm.lifetime.end.p0(i64 8, ptr %6) #11
  call void @llvm.lifetime.end.p0(i64 8, ptr %5) #11
  br label %116

116:                                              ; preds = %114, %14
  ret void
}