; Function Attrs: nounwind uwtable
define dso_local void @functionStatsCommand(ptr noundef %0) local_unnamed_addr #1 {
  %2 = tail call i32 @scriptIsRunning() #12
  %.not = icmp eq i32 %2, 0
  br i1 %.not, label %7, label %3

3:                                                ; preds = %1
  %4 = tail call i32 @scriptIsEval() #12
  %.not35 = icmp eq i32 %4, 0
  br i1 %.not35, label %7, label %5

5:                                                ; preds = %3
  %6 = load ptr, ptr getelementptr inbounds nuw (i8, ptr @shared, i64 256), align 8, !tbaa !94
  tail call void @addReplyErrorObject(ptr noundef %0, ptr noundef %6) #12
  br label %73

7:                                                ; preds = %3, %1
  tail call void @addReplyMapLen(ptr noundef %0, i64 noundef 2) #12
  tail call void @addReplyBulkCString(ptr noundef %0, ptr noundef nonnull @.str.5) #12
  %8 = tail call i32 @scriptIsRunning() #12
  %.not36 = icmp eq i32 %8, 0
  br i1 %.not36, label %9, label %10

9:                                                ; preds = %7
  tail call void @addReplyNull(ptr noundef %0) #12
  br label %51

10:                                               ; preds = %7
  tail call void @addReplyMapLen(ptr noundef %0, i64 noundef 3) #12
  tail call void @addReplyBulkCString(ptr noundef %0, ptr noundef nonnull @.str.6) #12
  %11 = tail call ptr @scriptCurrFunction() #12
  tail call void @addReplyBulkCString(ptr noundef %0, ptr noundef %11) #12
  tail call void @addReplyBulkCString(ptr noundef %0, ptr noundef nonnull @.str.7) #12
  %12 = tail call ptr @scriptGetCaller() #12
  %13 = getelementptr inbounds nuw i8, ptr %12, i64 88
  %14 = load i32, ptr %13, align 8, !tbaa !96
  %15 = sext i32 %14 to i64
  tail call void @addReplyArrayLen(ptr noundef %0, i64 noundef %15) #12
  %16 = load i32, ptr %13, align 8, !tbaa !96
  %17 = icmp sgt i32 %16, 0
  br i1 %17, label %.lr.ph, label %._crit_edge

.lr.ph:                                           ; preds = %10
  %18 = getelementptr inbounds nuw i8, ptr %12, i64 96
  br label %20

._crit_edge:                                      ; preds = %sdslen.exit, %10
  tail call void @addReplyBulkCString(ptr noundef %0, ptr noundef nonnull @.str.8) #12
  %19 = tail call i64 @scriptRunDuration() #12
  tail call void @addReplyLongLong(ptr noundef %0, i64 noundef %19) #12
  br label %51

20:                                               ; preds = %.lr.ph, %sdslen.exit
  %indvars.iv = phi i64 [ 0, %.lr.ph ], [ %indvars.iv.next, %sdslen.exit ]
  %21 = load ptr, ptr %18, align 8, !tbaa !97
  %22 = getelementptr inbounds nuw ptr, ptr %21, i64 %indvars.iv
  %23 = load ptr, ptr %22, align 8, !tbaa !98
  %24 = getelementptr inbounds nuw i8, ptr %23, i64 8
  %25 = load ptr, ptr %24, align 8, !tbaa !99
  %26 = getelementptr inbounds i8, ptr %25, i64 -1
  %27 = load i8, ptr %26, align 1, !tbaa !44
  %28 = zext i8 %27 to i32
  %29 = and i32 %28, 7
  switch i32 %29, label %sdslen.exit [
    i32 0, label %30
    i32 1, label %33
    i32 2, label %37
    i32 3, label %41
    i32 4, label %45
  ]

30:                                               ; preds = %20
  %31 = lshr i32 %28, 3
  %32 = zext nneg i32 %31 to i64
  br label %sdslen.exit

33:                                               ; preds = %20
  %34 = getelementptr inbounds i8, ptr %25, i64 -3
  %35 = load i8, ptr %34, align 1, !tbaa !44
  %36 = zext i8 %35 to i64
  br label %sdslen.exit

37:                                               ; preds = %20
  %38 = getelementptr inbounds i8, ptr %25, i64 -5
  %39 = load i16, ptr %38, align 1, !tbaa !45
  %40 = zext i16 %39 to i64
  br label %sdslen.exit

41:                                               ; preds = %20
  %42 = getelementptr inbounds i8, ptr %25, i64 -9
  %43 = load i32, ptr %42, align 1, !tbaa !47
  %44 = zext i32 %43 to i64
  br label %sdslen.exit

45:                                               ; preds = %20
  %46 = getelementptr inbounds i8, ptr %25, i64 -17
  %47 = load i64, ptr %46, align 1, !tbaa !49
  br label %sdslen.exit

sdslen.exit:                                      ; preds = %20, %30, %33, %37, %41, %45
  %.0.i = phi i64 [ %47, %45 ], [ %44, %41 ], [ %40, %37 ], [ %36, %33 ], [ %32, %30 ], [ 0, %20 ]
  tail call void @addReplyBulkCBuffer(ptr noundef %0, ptr noundef nonnull %25, i64 noundef %.0.i) #12
  %indvars.iv.next = add nuw nsw i64 %indvars.iv, 1
  %48 = load i32, ptr %13, align 8, !tbaa !96
  %49 = sext i32 %48 to i64
  %50 = icmp slt i64 %indvars.iv.next, %49
  br i1 %50, label %20, label %._crit_edge, !llvm.loop !101

51:                                               ; preds = %._crit_edge, %9
  tail call void @addReplyBulkCString(ptr noundef %0, ptr noundef nonnull @.str.9) #12
  %52 = load ptr, ptr @engines, align 8, !tbaa !42
  %53 = getelementptr inbounds nuw i8, ptr %52, i64 24
  %54 = load i64, ptr %53, align 8, !tbaa !49
  %55 = getelementptr inbounds nuw i8, ptr %52, i64 32
  %56 = load i64, ptr %55, align 8, !tbaa !49
  %57 = add i64 %56, %54
  tail call void @addReplyMapLen(ptr noundef %0, i64 noundef %57) #12
  %58 = load ptr, ptr @engines, align 8, !tbaa !42
  %59 = tail call ptr @dictGetIterator(ptr noundef %58) #12
  %60 = tail call ptr @dictNext(ptr noundef %59) #12
  %.not3739 = icmp eq ptr %60, null
  br i1 %.not3739, label %._crit_edge42, label %.lr.ph41

.lr.ph41:                                         ; preds = %51, %.lr.ph41
  %61 = phi ptr [ %72, %.lr.ph41 ], [ %60, %51 ]
  %62 = tail call ptr @dictGetVal(ptr noundef nonnull %61) #12
  %63 = load ptr, ptr %62, align 8, !tbaa !13
  tail call void @addReplyBulkCString(ptr noundef %0, ptr noundef %63) #12
  tail call void @addReplyMapLen(ptr noundef %0, i64 noundef 2) #12
  %64 = load ptr, ptr @curr_functions_lib_ctx, align 8, !tbaa !40
  %65 = getelementptr inbounds nuw i8, ptr %64, i64 24
  %66 = load ptr, ptr %65, align 8, !tbaa !36
  %67 = load ptr, ptr %62, align 8, !tbaa !13
  %68 = tail call ptr @dictFetchValue(ptr noundef %66, ptr noundef %67) #12
  tail call void @addReplyBulkCString(ptr noundef %0, ptr noundef nonnull @.str.10) #12
  %69 = load i64, ptr %68, align 8, !tbaa !102
  tail call void @addReplyLongLong(ptr noundef %0, i64 noundef %69) #12
  tail call void @addReplyBulkCString(ptr noundef %0, ptr noundef nonnull @.str.11) #12
  %70 = getelementptr inbounds nuw i8, ptr %68, i64 8
  %71 = load i64, ptr %70, align 8, !tbaa !104
  tail call void @addReplyLongLong(ptr noundef %0, i64 noundef %71) #12
  %72 = tail call ptr @dictNext(ptr noundef %59) #12
  %.not37 = icmp eq ptr %72, null
  br i1 %.not37, label %._crit_edge42, label %.lr.ph41, !llvm.loop !105

._crit_edge42:                                    ; preds = %.lr.ph41, %51
  tail call void @dictReleaseIterator(ptr noundef %59) #12
  br label %73

73:                                               ; preds = %._crit_edge42, %5
  ret void
}